; ModuleID = 'source-C-CXX/46/3560.c'
source_filename = "source-C-CXX/46/3560.c"
target datalayout = "e-m:e-p270:32:32-p271:32:32-p272:64:64-i64:64-f80:128-n8:16:32:64-S128"
target triple = "x86_64-pc-linux-gnu"

@.str = private unnamed_addr constant [3 x i8] c"%d\00", align 1
@.str.1 = private unnamed_addr constant [4 x i8] c" %d\00", align 1

; Function Attrs: nofree nounwind sspstrong uwtable
define dso_local i32 @main() local_unnamed_addr #0 {
  %1 = alloca i32, align 4
  %2 = bitcast i32* %1 to i8*
  call void @llvm.lifetime.start.p0i8(i64 4, i8* nonnull %2) #4
  %3 = call i32 (i8*, ...) @__isoc99_scanf(i8* getelementptr inbounds ([3 x i8], [3 x i8]* @.str, i64 0, i64 0), i32* nonnull %1)
  %4 = load i32, i32* %1, align 4, !tbaa !5
  %5 = zext i32 %4 to i64
  %6 = call i8* @llvm.stacksave()
  %7 = alloca i32, i64 %5, align 16
  %8 = load i32, i32* %1, align 4, !tbaa !5
  %9 = icmp sgt i32 %8, 0
  br i1 %9, label %10, label %12

10:                                               ; preds = %0
  %11 = zext i32 %8 to i64
  br label %22

12:                                               ; preds = %22, %0
  %13 = add nsw i32 %8, -1
  %14 = sext i32 %13 to i64
  %15 = getelementptr inbounds i32, i32* %7, i64 %14
  %16 = load i32, i32* %15, align 4, !tbaa !5
  %17 = call i32 (i8*, ...) @printf(i8* nonnull dereferenceable(1) getelementptr inbounds ([3 x i8], [3 x i8]* @.str, i64 0, i64 0), i32 %16) #4
  %18 = icmp sgt i32 %8, 1
  br i1 %18, label %19, label %35

19:                                               ; preds = %12
  %20 = add nsw i32 %8, -2
  %21 = zext i32 %20 to i64
  br label %28

22:                                               ; preds = %22, %10
  %23 = phi i64 [ 0, %10 ], [ %26, %22 ]
  %24 = getelementptr inbounds i32, i32* %7, i64 %23
  %25 = call i32 (i8*, ...) @__isoc99_scanf(i8* getelementptr inbounds ([3 x i8], [3 x i8]* @.str, i64 0, i64 0), i32* nonnull %24) #4
  %26 = add nuw nsw i64 %23, 1
  %27 = icmp eq i64 %26, %11
  br i1 %27, label %12, label %22, !llvm.loop !9

28:                                               ; preds = %28, %19
  %29 = phi i64 [ %21, %19 ], [ %34, %28 ]
  %30 = getelementptr inbounds i32, i32* %7, i64 %29
  %31 = load i32, i32* %30, align 4, !tbaa !5
  %32 = call i32 (i8*, ...) @printf(i8* nonnull dereferenceable(1) getelementptr inbounds ([4 x i8], [4 x i8]* @.str.1, i64 0, i64 0), i32 %31) #4
  %33 = icmp sgt i64 %29, 0
  %34 = add nsw i64 %29, -1
  br i1 %33, label %28, label %35, !llvm.loop !11

35:                                               ; preds = %28, %12
  call void @llvm.stackrestore(i8* %6)
  call void @llvm.lifetime.end.p0i8(i64 4, i8* nonnull %2) #4
  ret i32 0
}

; Function Attrs: argmemonly mustprogress nofree nosync nounwind willreturn
declare void @llvm.lifetime.start.p0i8(i64 immarg, i8* nocapture) #1

; Function Attrs: nofree nounwind
declare noundef i32 @__isoc99_scanf(i8* nocapture noundef readonly, ...) local_unnamed_addr #2

; Function Attrs: mustprogress nofree nosync nounwind willreturn
declare i8* @llvm.stacksave() #3

; Function Attrs: nofree nounwind sspstrong uwtable
define dso_local void @Exchange(i32* %0, i32 %1) local_unnamed_addr #0 {
  %3 = icmp sgt i32 %1, 0
  br i1 %3, label %4, label %6

4:                                                ; preds = %2
  %5 = zext i32 %1 to i64
  br label %16

6:                                                ; preds = %16, %2
  %7 = add nsw i32 %1, -1
  %8 = sext i32 %7 to i64
  %9 = getelementptr inbounds i32, i32* %0, i64 %8
  %10 = load i32, i32* %9, align 4, !tbaa !5
  %11 = tail call i32 (i8*, ...) @printf(i8* nonnull dereferenceable(1) getelementptr inbounds ([3 x i8], [3 x i8]* @.str, i64 0, i64 0), i32 %10)
  %12 = icmp sgt i32 %1, 1
  br i1 %12, label %13, label %22

13:                                               ; preds = %6
  %14 = add nsw i32 %1, -2
  %15 = zext i32 %14 to i64
  br label %23

16:                                               ; preds = %4, %16
  %17 = phi i64 [ 0, %4 ], [ %20, %16 ]
  %18 = getelementptr inbounds i32, i32* %0, i64 %17
  %19 = tail call i32 (i8*, ...) @__isoc99_scanf(i8* getelementptr inbounds ([3 x i8], [3 x i8]* @.str, i64 0, i64 0), i32* %18)
  %20 = add nuw nsw i64 %17, 1
  %21 = icmp eq i64 %20, %5
  br i1 %21, label %6, label %16, !llvm.loop !9

22:                                               ; preds = %23, %6
  ret void

23:                                               ; preds = %13, %23
  %24 = phi i64 [ %15, %13 ], [ %29, %23 ]
  %25 = getelementptr inbounds i32, i32* %0, i64 %24
  %26 = load i32, i32* %25, align 4, !tbaa !5
  %27 = tail call i32 (i8*, ...) @printf(i8* nonnull dereferenceable(1) getelementptr inbounds ([4 x i8], [4 x i8]* @.str.1, i64 0, i64 0), i32 %26)
  %28 = icmp sgt i64 %24, 0
  %29 = add nsw i64 %24, -1
  br i1 %28, label %23, label %22, !llvm.loop !11
}

; Function Attrs: mustprogress nofree nosync nounwind willreturn
declare void @llvm.stackrestore(i8*) #3

; Function Attrs: argmemonly mustprogress nofree nosync nounwind willreturn
declare void @llvm.lifetime.end.p0i8(i64 immarg, i8* nocapture) #1

; Function Attrs: nofree nounwind
declare noundef i32 @printf(i8* nocapture noundef readonly, ...) local_unnamed_addr #2


!llvm.module.flags = !{!0, !1, !2, !3}
!llvm.ident = !{!4}

!0 = !{i32 1, !"wchar_size", i32 4}
!1 = !{i32 7, !"PIC Level", i32 2}
!2 = !{i32 7, !"PIE Level", i32 2}
!3 = !{i32 7, !"uwtable", i32 1}
!4 = !{!"clang version 13.0.0"}
!5 = !{!6, !6, i64 0}
!6 = !{!"int", !7, i64 0}
!7 = !{!"omnipotent char", !8, i64 0}
!8 = !{!"Simple C/C++ TBAA"}
!9 = distinct !{!9, !10}
!10 = !{!"llvm.loop.mustprogress"}
!11 = distinct !{!11, !10}
